target datalayout = "e-m:e-p270:32:32-p271:32:32-p272:64:64-i64:64-i128:128-f80:128-n8:16:32:64-S128"
target triple = "x86_64-unknown-linux-gnu"

%struct.UString = type { ptr, i32, i32 }
%struct.ParseState = type { [4 x %struct.Lookahead], i32, ptr, ptr, ptr, i32, ptr, i32, ptr, i8, i8, i8 }
%struct.Lookahead = type { i32, %struct.UString, %struct.UString, i32 }

@.str.28 = private unnamed_addr constant [24 x i8] c" string %s at line %i \0A\00", align 1
@.str.29 = private unnamed_addr constant [7 x i8] c"(null)\00", align 1

; Function Attrs: mustprogress nounwind uwtable
define internal noundef signext i8 @_ZL9U_FAILURE10UErrorCode(i32 noundef %code) #0 {
entry:
  %code.addr = alloca i32, align 4
  store i32 %code, ptr %code.addr, align 4
  %0 = load i32, ptr %code.addr, align 4
  %cmp = icmp sgt i32 %0, 0
  %conv = zext i1 %cmp to i8
  ret i8 %conv
}

; Function Attrs: mustprogress nounwind uwtable
define internal noundef signext i8 @_ZL9U_SUCCESS10UErrorCode(i32 noundef %code) #0 {
entry:
  %code.addr = alloca i32, align 4
  store i32 %code, ptr %code.addr, align 4
  %0 = load i32, ptr %code.addr, align 4
  %cmp = icmp sle i32 %0, 0
  %conv = zext i1 %cmp to i8
  ret i8 %conv
}

; Function Attrs: mustprogress uwtable
define internal noundef ptr @_ZL11parseStringP10ParseStatePcjPK7UStringP10UErrorCode(ptr noundef %state, ptr noundef %tag, i32 noundef %startline, ptr noundef %comment, ptr noundef %status) #1 {
entry:
  %retval = alloca ptr, align 8
  %state.addr = alloca ptr, align 8
  %tag.addr = alloca ptr, align 8
  %startline.addr = alloca i32, align 4
  %comment.addr = alloca ptr, align 8
  %status.addr = alloca ptr, align 8
  %tokenValue = alloca ptr, align 8
  %result = alloca ptr, align 8
  store ptr %state, ptr %state.addr, align 8
  store ptr %tag, ptr %tag.addr, align 8
  store i32 %startline, ptr %startline.addr, align 4
  store ptr %comment, ptr %comment.addr, align 8
  store ptr %status, ptr %status.addr, align 8
  store ptr null, ptr %result, align 8
  %call = call signext i8 @isVerbose()
  %tobool = icmp ne i8 %call, 0
  br i1 %tobool, label %if.then, label %if.end

if.then:                                          ; preds = %entry
  %0 = load ptr, ptr %tag.addr, align 8
  %cmp = icmp eq ptr %0, null
  br i1 %cmp, label %cond.true, label %cond.false

cond.true:                                        ; preds = %if.then
  br label %cond.end

cond.false:                                       ; preds = %if.then
  %1 = load ptr, ptr %tag.addr, align 8
  br label %cond.end

cond.end:                                         ; preds = %cond.false, %cond.true
  %cond = phi ptr [ @.str.29, %cond.true ], [ %1, %cond.false ]
  %2 = load i32, ptr %startline.addr, align 4
  %call1 = call i32 (ptr, ...) @printf(ptr noundef @.str.28, ptr noundef %cond, i32 noundef %2)
  br label %if.end

if.end:                                           ; preds = %cond.end, %entry
  %3 = load ptr, ptr %state.addr, align 8
  %4 = load ptr, ptr %status.addr, align 8
  call void @_ZL6expectP10ParseState10ETokenTypePP7UStringS3_PjP10UErrorCode(ptr noundef %3, i32 noundef 0, ptr noundef %tokenValue, ptr noundef null, ptr noundef null, ptr noundef %4)
  %5 = load ptr, ptr %status.addr, align 8
  %6 = load i32, ptr %5, align 4
  %call2 = call noundef signext i8 @_ZL9U_SUCCESS10UErrorCode(i32 noundef %6)
  %tobool3 = icmp ne i8 %call2, 0
  br i1 %tobool3, label %if.then4, label %if.end15

if.then4:                                         ; preds = %if.end
  %7 = load ptr, ptr %state.addr, align 8
  %bundle = getelementptr inbounds %struct.ParseState, ptr %7, i32 0, i32 3
  %8 = load ptr, ptr %bundle, align 8
  %9 = load ptr, ptr %tag.addr, align 8
  %10 = load ptr, ptr %tokenValue, align 8
  %fChars = getelementptr inbounds %struct.UString, ptr %10, i32 0, i32 0
  %11 = load ptr, ptr %fChars, align 8
  %12 = load ptr, ptr %tokenValue, align 8
  %fLength = getelementptr inbounds %struct.UString, ptr %12, i32 0, i32 1
  %13 = load i32, ptr %fLength, align 8
  %14 = load ptr, ptr %comment.addr, align 8
  %15 = load ptr, ptr %status.addr, align 8
  %call5 = call ptr @string_open(ptr noundef %8, ptr noundef %9, ptr noundef %11, i32 noundef %13, ptr noundef %14, ptr noundef %15)
  store ptr %call5, ptr %result, align 8
  %16 = load ptr, ptr %status.addr, align 8
  %17 = load i32, ptr %16, align 4
  %call6 = call noundef signext i8 @_ZL9U_SUCCESS10UErrorCode(i32 noundef %17)
  %tobool7 = icmp ne i8 %call6, 0
  br i1 %tobool7, label %land.lhs.true, label %if.end14

land.lhs.true:                                    ; preds = %if.then4
  %18 = load ptr, ptr %result, align 8
  %tobool8 = icmp ne ptr %18, null
  br i1 %tobool8, label %if.then9, label %if.end14

if.then9:                                         ; preds = %land.lhs.true
  %19 = load ptr, ptr %state.addr, align 8
  %20 = load ptr, ptr %status.addr, align 8
  call void @_ZL6expectP10ParseState10ETokenTypePP7UStringS3_PjP10UErrorCode(ptr noundef %19, i32 noundef 2, ptr noundef null, ptr noundef null, ptr noundef null, ptr noundef %20)
  %21 = load ptr, ptr %status.addr, align 8
  %22 = load i32, ptr %21, align 4
  %call10 = call noundef signext i8 @_ZL9U_FAILURE10UErrorCode(i32 noundef %22)
  %tobool11 = icmp ne i8 %call10, 0
  br i1 %tobool11, label %if.then12, label %if.end13

if.then12:                                        ; preds = %if.then9
  %23 = load ptr, ptr %result, align 8
  call void @res_close(ptr noundef %23)
  store ptr null, ptr %retval, align 8
  br label %return

if.end13:                                         ; preds = %if.then9
  br label %if.end14

if.end14:                                         ; preds = %if.end13, %land.lhs.true, %if.then4
  br label %if.end15

if.end15:                                         ; preds = %if.end14, %if.end
  %24 = load ptr, ptr %result, align 8
  store ptr %24, ptr %retval, align 8
  br label %return

return:                                           ; preds = %if.end15, %if.then12
  %25 = load ptr, ptr %retval, align 8
  ret ptr %25
}