; Function Attrs: mustprogress uwtable
define internal noundef ptr @_ZL11parseStringP10ParseStatePcjPK7UStringP10UErrorCode(ptr noundef %state, ptr noundef %tag, i32 noundef %startline, ptr noundef %comment, ptr noundef %status) #1 {
entry:
  %tokenValue = alloca ptr, align 8
  %call = tail call signext i8 @isVerbose()
  %tobool.not = icmp eq i8 %call, 0
  br i1 %tobool.not, label %if.end, label %if.then

if.then:                                          ; preds = %entry
  %cmp = icmp eq ptr %tag, null
  %cond = select i1 %cmp, ptr @.str.29, ptr %tag
  %call1 = tail call i32 (ptr, ...) @printf(ptr noundef nonnull dereferenceable(1) @.str.28, ptr noundef nonnull %cond, i32 noundef %startline)
  br label %if.end

if.end:                                           ; preds = %if.then, %entry
  call fastcc void @_ZL6expectP10ParseState10ETokenTypePP7UStringS3_PjP10UErrorCode(ptr noundef %state, i32 noundef 0, ptr noundef nonnull %tokenValue, ptr noundef null, ptr noundef null, ptr noundef %status)
  %0 = load i32, ptr %status, align 4
  %cmp.i = icmp sgt i32 %0, 0
  br i1 %cmp.i, label %return, label %if.then4

if.then4:                                         ; preds = %if.end
  %bundle = getelementptr inbounds i8, ptr %state, i64 208
  %1 = load ptr, ptr %bundle, align 8
  %2 = load ptr, ptr %tokenValue, align 8
  %3 = load ptr, ptr %2, align 8
  %fLength = getelementptr inbounds i8, ptr %2, i64 8
  %4 = load i32, ptr %fLength, align 8
  %call5 = call ptr @string_open(ptr noundef %1, ptr noundef %tag, ptr noundef %3, i32 noundef %4, ptr noundef %comment, ptr noundef nonnull %status)
  %5 = load i32, ptr %status, align 4
  %cmp.i12 = icmp slt i32 %5, 1
  %tobool8 = icmp ne ptr %call5, null
  %or.cond = select i1 %cmp.i12, i1 %tobool8, i1 false
  br i1 %or.cond, label %if.then9, label %return

if.then9:                                         ; preds = %if.then4
  %lookaheadPosition.i.i = getelementptr inbounds i8, ptr %state, i64 192
  %6 = load i32, ptr %lookaheadPosition.i.i, align 8
  %idxprom.i.i = zext i32 %6 to i64
  %arrayidx.i.i = getelementptr inbounds [4 x %struct.Lookahead], ptr %state, i64 0, i64 %idxprom.i.i
  %7 = load i32, ptr %arrayidx.i.i, align 8
  %line.i.i = getelementptr inbounds [4 x %struct.Lookahead], ptr %state, i64 0, i64 %idxprom.i.i, i32 3
  %8 = load i32, ptr %line.i.i, align 8
  %add.i.i = add i32 %6, 3
  %rem.i.i = and i32 %add.i.i, 3
  %add22.i.i = add i32 %6, 1
  %rem23.i.i = and i32 %add22.i.i, 3
  store i32 %rem23.i.i, ptr %lookaheadPosition.i.i, align 8
  %idxprom26.i.i = zext nneg i32 %rem.i.i to i64
  %arrayidx27.i.i = getelementptr inbounds [4 x %struct.Lookahead], ptr %state, i64 0, i64 %idxprom26.i.i
  %comment28.i.i = getelementptr inbounds i8, ptr %arrayidx27.i.i, i64 24
  call void @ustr_setlen(ptr noundef nonnull %comment28.i.i, i32 noundef 0, ptr noundef nonnull %status)
  %value32.i.i = getelementptr inbounds i8, ptr %arrayidx27.i.i, i64 8
  call void @ustr_setlen(ptr noundef nonnull %value32.i.i, i32 noundef 0, ptr noundef nonnull %status)
  %buffer.i.i = getelementptr inbounds i8, ptr %state, i64 200
  %9 = load ptr, ptr %buffer.i.i, align 8
  %line40.i.i = getelementptr inbounds i8, ptr %arrayidx27.i.i, i64 40
  %call.i.i = call i32 @getNextToken(ptr noundef %9, ptr noundef nonnull %value32.i.i, ptr noundef nonnull %line40.i.i, ptr noundef nonnull %comment28.i.i, ptr noundef nonnull %status)
  store i32 %call.i.i, ptr %arrayidx27.i.i, align 8
  %10 = load i32, ptr %status, align 4
  %cmp.i.i = icmp slt i32 %10, 1
  br i1 %cmp.i.i, label %if.end3.i, label %if.then12

if.end3.i:                                        ; preds = %if.then9
  %cmp4.not.i = icmp eq i32 %7, 2
  br i1 %cmp4.not.i, label %_ZL6expectP10ParseState10ETokenTypePP7UStringS3_PjP10UErrorCode.exit.thread, label %_ZL6expectP10ParseState10ETokenTypePP7UStringS3_PjP10UErrorCode.exit

_ZL6expectP10ParseState10ETokenTypePP7UStringS3_PjP10UErrorCode.exit.thread: ; preds = %if.end3.i
  store i32 0, ptr %status, align 4
  br label %return

_ZL6expectP10ParseState10ETokenTypePP7UStringS3_PjP10UErrorCode.exit: ; preds = %if.end3.i
  store i32 3, ptr %status, align 4
  %11 = load ptr, ptr getelementptr inbounds ([7 x ptr], ptr @tokenNames, i64 0, i64 2), align 16
  %idxprom6.i = zext i32 %7 to i64
  %arrayidx7.i = getelementptr inbounds [7 x ptr], ptr @tokenNames, i64 0, i64 %idxprom6.i
  %12 = load ptr, ptr %arrayidx7.i, align 8
  call void (i32, ptr, ...) @error(i32 noundef %8, ptr noundef nonnull @.str.10, ptr noundef %11, ptr noundef %12)
  %.pre = load i32, ptr %status, align 4
  %13 = icmp slt i32 %.pre, 1
  br i1 %13, label %return, label %if.then12

if.then12:                                        ; preds = %if.then9, %_ZL6expectP10ParseState10ETokenTypePP7UStringS3_PjP10UErrorCode.exit
  call void @res_close(ptr noundef nonnull %call5)
  br label %return

return:                                           ; preds = %_ZL6expectP10ParseState10ETokenTypePP7UStringS3_PjP10UErrorCode.exit.thread, %if.end, %_ZL6expectP10ParseState10ETokenTypePP7UStringS3_PjP10UErrorCode.exit, %if.then4, %if.then12
  %retval.0 = phi ptr [ null, %if.then12 ], [ %call5, %_ZL6expectP10ParseState10ETokenTypePP7UStringS3_PjP10UErrorCode.exit ], [ %call5, %if.then4 ], [ null, %if.end ], [ %call5, %_ZL6expectP10ParseState10ETokenTypePP7UStringS3_PjP10UErrorCode.exit.thread ]
  ret ptr %retval.0
}